; Function Attrs: mustprogress uwtable
define noalias noundef nonnull ptr @lean_io_process_get_current_dir(ptr noundef readnone captures(none) %0) local_unnamed_addr #0 {
  %2 = alloca [4096 x i8], align 16
  call void @llvm.lifetime.start.p0(i64 4096, ptr nonnull %2) #24
  %3 = call ptr @getcwd(ptr noundef nonnull %2, i64 noundef 4096) #24
  %.not = icmp eq ptr %3, null
  br i1 %.not, label %9, label %4

4:                                                ; preds = %1
  %5 = call noundef ptr @lean_mk_string(ptr noundef nonnull %2)
  call void @lean_inc_heartbeat()
  %6 = call noalias ptr @mi_malloc_small(i64 noundef 24) #24
  %7 = icmp eq ptr %6, null
  br i1 %7, label %8, label %_ZN4lean15io_result_mk_okEP11lean_object.exit

8:                                                ; preds = %4
  call void @lean_internal_panic_out_of_memory() #25
  unreachable

9:                                                ; preds = %1
  %10 = tail call ptr @__errno_location() #26
  %11 = load i32, ptr %10, align 4, !tbaa !3
  %12 = call noundef ptr @lean_decode_io_error(i32 noundef %11, ptr noundef null)
  call void @lean_inc_heartbeat()
  %13 = call noalias ptr @mi_malloc_small(i64 noundef 24) #24
  %14 = icmp eq ptr %13, null
  br i1 %14, label %15, label %_ZN4lean15io_result_mk_okEP11lean_object.exit

15:                                               ; preds = %9
  call void @lean_internal_panic_out_of_memory() #25
  unreachable

_ZN4lean15io_result_mk_okEP11lean_object.exit:    ; preds = %9, %4
  %.sink7 = phi ptr [ %6, %4 ], [ %13, %9 ]
  %.sink4 = phi i32 [ 131096, %4 ], [ 16908312, %9 ]
  %.sink = phi ptr [ %5, %4 ], [ %12, %9 ]
  %16 = getelementptr inbounds nuw i8, ptr %.sink7, i64 4
  store i32 1, ptr %.sink7, align 4, !tbaa !7
  store i32 %.sink4, ptr %16, align 4
  %17 = getelementptr inbounds nuw i8, ptr %.sink7, i64 8
  store ptr %.sink, ptr %17, align 8, !tbaa !9
  %18 = getelementptr inbounds nuw i8, ptr %.sink7, i64 16
  store ptr inttoptr (i64 1 to ptr), ptr %18, align 8, !tbaa !9
  call void @llvm.lifetime.end.p0(i64 4096, ptr nonnull %2) #24
  ret ptr %.sink7
}